target datalayout = "e-m:e-p270:32:32-p271:32:32-p272:64:64-i64:64-i128:128-f80:128-n8:16:32:64-S128"
target triple = "x86_64-pc-linux-gnu"

%struct.LLVMIntrinsics = type { i32, i32, i32, i32, i32, i32, i32, i32, i32, i32, i32, i32, i32, i32, i32, i32, i32, i32, i32, i32, i32, i32, i32, i32, i32, i32, i32, i32, i32, i32, i32, i32, i32, i32, i32, i32, i32, i32, i32, i32, i32, i32, i32, i32, i32, i32, i32, i32, i32, i32, i32, i32, i32, i32, i32, i32, i32, i32, i32, i32, i32, i32, i32, i32, i32, i32, i32, i32, i32, i32, i32, i32, i32, i32, i32, i32, i32, i32, i32, i32, i32, i32, i32, i32, i32, i32, i32, i32, i32, i32, i32, i32, i32, i32 }
%struct.BuildTarget = type { i32, ptr, ptr, ptr, ptr, ptr, ptr, ptr, ptr, ptr, ptr, ptr, ptr, ptr, ptr, ptr, ptr, ptr, ptr, i8, i8, i8, i8, i8, i8, i8, i8, i8, i8, i8, i8, i8, i8, i8, i8, i8, i8, i8, i8, i32, i32, i32, i32, i32, i32, i32, i32, i32, i32, i32, i32, i32, i32, i32, i32, i32, i32, ptr, ptr, ptr, ptr, ptr, ptr, ptr, ptr, ptr, ptr, %struct.anon.104, %struct.anon.105, %struct.anon.106, %struct.anon.107 }
%struct.anon.104 = type { i16, i32, i32, i32 }
%struct.anon.105 = type { ptr, ptr, ptr, ptr }
%struct.anon.106 = type { ptr, ptr, i32, i8 }
%struct.anon.107 = type { ptr, ptr }
%struct.BEValue = type { i8, i32, ptr, ptr, ptr }
%struct.GenContext_ = type { i8, ptr, ptr, ptr, ptr, ptr, ptr, ptr, ptr, ptr, ptr, ptr, ptr, ptr, ptr, ptr, ptr, ptr, ptr, ptr, ptr, ptr, ptr, ptr, ptr, ptr, ptr, ptr, ptr, ptr, ptr, ptr, ptr, %struct.anon.85, i32, i32, %struct.DebugContext, ptr, ptr, ptr, %struct.BEValue, i8, %union.SourceSpan, ptr, ptr, ptr, ptr }
%struct.anon.85 = type { ptr, ptr, ptr }
%struct.DebugContext = type { i16, ptr, ptr, %struct.DebugFile_, ptr, ptr, ptr, ptr }
%struct.DebugFile_ = type { i16, ptr }
%union.SourceSpan = type { i64 }
%struct.Type_ = type { i32, ptr, ptr, ptr, %union.anon.97, ptr, ptr, %union.anon.99 }
%union.anon.97 = type { ptr }
%union.anon.99 = type { %struct.TypeFunction }
%struct.TypeFunction = type { ptr, ptr, ptr }

@intrinsic_id = external global %struct.LLVMIntrinsics, align 4
@.str.3 = private unnamed_addr constant [1 x i8] zeroinitializer, align 1
@type_usz = external global ptr, align 8
@active_target = external global %struct.BuildTarget, align 8
@.str.161 = private unnamed_addr constant [21 x i8] c"Subtraction overflow\00", align 1
@.str.162 = private unnamed_addr constant [4 x i8] c"sub\00", align 1

; Function Attrs: nounwind uwtable
define dso_local ptr @llvm_emit_call_intrinsic(ptr noundef %0, i32 noundef %1, ptr noundef %2, i32 noundef %3, ptr noundef %4, i32 noundef %5) #0 {
  %7 = alloca ptr, align 8
  %8 = alloca i32, align 4
  %9 = alloca ptr, align 8
  %10 = alloca i32, align 4
  %11 = alloca ptr, align 8
  %12 = alloca i32, align 4
  %13 = alloca ptr, align 8
  %14 = alloca ptr, align 8
  store ptr %0, ptr %7, align 8
  store i32 %1, ptr %8, align 4
  store ptr %2, ptr %9, align 8
  store i32 %3, ptr %10, align 4
  store ptr %4, ptr %11, align 8
  store i32 %5, ptr %12, align 4
  %15 = load ptr, ptr %7, align 8
  %16 = getelementptr inbounds %struct.GenContext_, ptr %15, i32 0, i32 1
  %17 = load ptr, ptr %16, align 8
  %18 = load i32, ptr %8, align 4
  %19 = load ptr, ptr %9, align 8
  %20 = load i32, ptr %10, align 4
  %21 = zext i32 %20 to i64
  %22 = call ptr @LLVMGetIntrinsicDeclaration(ptr noundef %17, i32 noundef %18, ptr noundef %19, i64 noundef %21)
  store ptr %22, ptr %13, align 8
  %23 = load ptr, ptr %7, align 8
  %24 = getelementptr inbounds %struct.GenContext_, ptr %23, i32 0, i32 5
  %25 = load ptr, ptr %24, align 8
  %26 = load i32, ptr %8, align 4
  %27 = load ptr, ptr %9, align 8
  %28 = load i32, ptr %10, align 4
  %29 = zext i32 %28 to i64
  %30 = call ptr @LLVMIntrinsicGetType(ptr noundef %25, i32 noundef %26, ptr noundef %27, i64 noundef %29)
  store ptr %30, ptr %14, align 8
  %31 = load ptr, ptr %7, align 8
  %32 = getelementptr inbounds %struct.GenContext_, ptr %31, i32 0, i32 8
  %33 = load ptr, ptr %32, align 8
  %34 = load ptr, ptr %14, align 8
  %35 = load ptr, ptr %13, align 8
  %36 = load ptr, ptr %11, align 8
  %37 = load i32, ptr %12, align 4
  %38 = call ptr @LLVMBuildCall2(ptr noundef %33, ptr noundef %34, ptr noundef %35, ptr noundef %36, i32 noundef %37, ptr noundef @.str.3)
  ret ptr %38
}

; Function Attrs: nounwind uwtable
define internal ptr @llvm_emit_sub_int(ptr noundef %0, ptr noundef %1, ptr noundef %2, ptr noundef %3, i64 %4) #0 {
  %6 = alloca ptr, align 8
  %7 = alloca i32, align 4
  %8 = alloca ptr, align 8
  %9 = alloca i32, align 4
  %10 = alloca ptr, align 8
  %11 = alloca ptr, align 8
  %12 = alloca ptr, align 8
  %13 = alloca i64, align 8
  %14 = alloca ptr, align 8
  %15 = alloca ptr, align 8
  %16 = alloca i64, align 8
  %17 = alloca ptr, align 8
  %18 = alloca ptr, align 8
  %19 = alloca ptr, align 8
  %20 = alloca i32, align 4
  %21 = alloca ptr, align 8
  %22 = alloca ptr, align 8
  %23 = alloca ptr, align 8
  %24 = alloca i32, align 4
  %25 = alloca ptr, align 8
  %26 = alloca %union.SourceSpan, align 8
  %27 = alloca ptr, align 8
  %28 = alloca ptr, align 8
  %29 = alloca ptr, align 8
  %30 = alloca ptr, align 8
  %31 = alloca ptr, align 8
  %32 = alloca [2 x ptr], align 16
  %33 = alloca ptr, align 8
  %34 = alloca ptr, align 8
  %35 = alloca ptr, align 8
  %36 = getelementptr inbounds %union.SourceSpan, ptr %26, i32 0, i32 0
  store i64 %4, ptr %36, align 8
  store ptr %0, ptr %27, align 8
  store ptr %1, ptr %28, align 8
  store ptr %2, ptr %29, align 8
  store ptr %3, ptr %30, align 8
  %37 = load i16, ptr getelementptr inbounds (%struct.BuildTarget, ptr @active_target, i32 0, i32 67), align 8
  %38 = lshr i16 %37, 14
  %39 = and i16 %38, 1
  %40 = trunc i16 %39 to i1
  br i1 %40, label %41, label %177

41:                                               ; preds = %5
  %42 = load ptr, ptr %27, align 8
  %43 = load ptr, ptr %28, align 8
  %44 = call ptr @llvm_get_type(ptr noundef %42, ptr noundef %43)
  store ptr %44, ptr %31, align 8
  %45 = getelementptr inbounds [2 x ptr], ptr %32, i64 0, i64 0
  %46 = load ptr, ptr %29, align 8
  store ptr %46, ptr %45, align 8
  %47 = getelementptr inbounds ptr, ptr %45, i64 1
  %48 = load ptr, ptr %30, align 8
  store ptr %48, ptr %47, align 8
  %49 = load ptr, ptr %28, align 8
  store ptr %49, ptr %10, align 8
  %50 = load ptr, ptr %10, align 8
  %51 = load i32, ptr %50, align 8
  %52 = icmp uge i32 %51, 8
  br i1 %52, label %53, label %57

53:                                               ; preds = %41
  %54 = load ptr, ptr %10, align 8
  %55 = load i32, ptr %54, align 8
  %56 = icmp ule i32 %55, 12
  br label %57

57:                                               ; preds = %53, %41
  %58 = phi i1 [ false, %41 ], [ %56, %53 ]
  br i1 %58, label %59, label %64

59:                                               ; preds = %57
  %60 = load ptr, ptr %27, align 8
  %61 = load i32, ptr getelementptr inbounds (%struct.LLVMIntrinsics, ptr @intrinsic_id, i32 0, i32 76), align 4
  %62 = getelementptr inbounds [2 x ptr], ptr %32, i64 0, i64 0
  %63 = call ptr @llvm_emit_call_intrinsic(ptr noundef %60, i32 noundef %61, ptr noundef %31, i32 noundef 1, ptr noundef %62, i32 noundef 2)
  store ptr %63, ptr %33, align 8
  br label %69

64:                                               ; preds = %57
  %65 = load ptr, ptr %27, align 8
  %66 = load i32, ptr getelementptr inbounds (%struct.LLVMIntrinsics, ptr @intrinsic_id, i32 0, i32 66), align 4
  %67 = getelementptr inbounds [2 x ptr], ptr %32, i64 0, i64 0
  %68 = call ptr @llvm_emit_call_intrinsic(ptr noundef %65, i32 noundef %66, ptr noundef %31, i32 noundef 1, ptr noundef %67, i32 noundef 2)
  store ptr %68, ptr %33, align 8
  br label %69

69:                                               ; preds = %64, %59
  %70 = load ptr, ptr %27, align 8
  %71 = load ptr, ptr %33, align 8
  store ptr %70, ptr %18, align 8
  store ptr %71, ptr %19, align 8
  store i32 0, ptr %20, align 4
  %72 = load ptr, ptr %19, align 8
  %73 = call ptr @LLVMTypeOf(ptr noundef %72) #8
  %74 = call i32 @LLVMGetTypeKind(ptr noundef %73) #8
  %75 = icmp eq i32 %74, 13
  br i1 %75, label %76, label %112

76:                                               ; preds = %69
  %77 = load ptr, ptr %18, align 8
  %78 = getelementptr inbounds %struct.GenContext_, ptr %77, i32 0, i32 8
  %79 = load ptr, ptr %78, align 8
  %80 = load ptr, ptr %19, align 8
  %81 = load ptr, ptr %18, align 8
  %82 = load ptr, ptr @type_usz, align 8
  %83 = load i32, ptr %20, align 4
  %84 = zext i32 %83 to i64
  store ptr %81, ptr %14, align 8
  store ptr %82, ptr %15, align 8
  store i64 %84, ptr %16, align 8
  %85 = load ptr, ptr %15, align 8
  %86 = call ptr @type_lowering(ptr noundef %85)
  store ptr %86, ptr %15, align 8
  %87 = load ptr, ptr %14, align 8
  %88 = load ptr, ptr %15, align 8
  %89 = call ptr @llvm_get_type(ptr noundef %87, ptr noundef %88) #8
  %90 = load i64, ptr %16, align 8
  %91 = load ptr, ptr %15, align 8
  store ptr %91, ptr %6, align 8
  %92 = load ptr, ptr %6, align 8
  %93 = load i32, ptr %92, align 8
  store i32 %93, ptr %7, align 4
  %94 = load i32, ptr %7, align 4
  %95 = icmp eq i32 %94, 31
  br i1 %95, label %96, label %101

96:                                               ; preds = %76
  %97 = load ptr, ptr %6, align 8
  %98 = getelementptr inbounds %struct.Type_, ptr %97, i32 0, i32 1
  %99 = load ptr, ptr %98, align 8
  %100 = load i32, ptr %99, align 8
  store i32 %100, ptr %7, align 4
  br label %101

101:                                              ; preds = %96, %76
  %102 = load i32, ptr %7, align 4
  %103 = icmp uge i32 %102, 3
  br i1 %103, label %104, label %107

104:                                              ; preds = %101
  %105 = load i32, ptr %7, align 4
  %106 = icmp ule i32 %105, 7
  br label %107

107:                                              ; preds = %104, %101
  %108 = phi i1 [ false, %101 ], [ %106, %104 ]
  %109 = zext i1 %108 to i32
  %110 = call ptr @LLVMConstInt(ptr noundef %89, i64 noundef %90, i32 noundef %109) #8
  %111 = call ptr @LLVMBuildExtractElement(ptr noundef %79, ptr noundef %80, ptr noundef %110, ptr noundef @.str.3) #8
  store ptr %111, ptr %17, align 8
  br label %119

112:                                              ; preds = %69
  %113 = load ptr, ptr %18, align 8
  %114 = getelementptr inbounds %struct.GenContext_, ptr %113, i32 0, i32 8
  %115 = load ptr, ptr %114, align 8
  %116 = load ptr, ptr %19, align 8
  %117 = load i32, ptr %20, align 4
  %118 = call ptr @LLVMBuildExtractValue(ptr noundef %115, ptr noundef %116, i32 noundef %117, ptr noundef @.str.3) #8
  store ptr %118, ptr %17, align 8
  br label %119

119:                                              ; preds = %112, %107
  %120 = load ptr, ptr %17, align 8
  store ptr %120, ptr %34, align 8
  %121 = load ptr, ptr %27, align 8
  %122 = load ptr, ptr %33, align 8
  store ptr %121, ptr %22, align 8
  store ptr %122, ptr %23, align 8
  store i32 1, ptr %24, align 4
  %123 = load ptr, ptr %23, align 8
  %124 = call ptr @LLVMTypeOf(ptr noundef %123) #8
  %125 = call i32 @LLVMGetTypeKind(ptr noundef %124) #8
  %126 = icmp eq i32 %125, 13
  br i1 %126, label %127, label %163

127:                                              ; preds = %119
  %128 = load ptr, ptr %22, align 8
  %129 = getelementptr inbounds %struct.GenContext_, ptr %128, i32 0, i32 8
  %130 = load ptr, ptr %129, align 8
  %131 = load ptr, ptr %23, align 8
  %132 = load ptr, ptr %22, align 8
  %133 = load ptr, ptr @type_usz, align 8
  %134 = load i32, ptr %24, align 4
  %135 = zext i32 %134 to i64
  store ptr %132, ptr %11, align 8
  store ptr %133, ptr %12, align 8
  store i64 %135, ptr %13, align 8
  %136 = load ptr, ptr %12, align 8
  %137 = call ptr @type_lowering(ptr noundef %136)
  store ptr %137, ptr %12, align 8
  %138 = load ptr, ptr %11, align 8
  %139 = load ptr, ptr %12, align 8
  %140 = call ptr @llvm_get_type(ptr noundef %138, ptr noundef %139) #8
  %141 = load i64, ptr %13, align 8
  %142 = load ptr, ptr %12, align 8
  store ptr %142, ptr %8, align 8
  %143 = load ptr, ptr %8, align 8
  %144 = load i32, ptr %143, align 8
  store i32 %144, ptr %9, align 4
  %145 = load i32, ptr %9, align 4
  %146 = icmp eq i32 %145, 31
  br i1 %146, label %147, label %152

147:                                              ; preds = %127
  %148 = load ptr, ptr %8, align 8
  %149 = getelementptr inbounds %struct.Type_, ptr %148, i32 0, i32 1
  %150 = load ptr, ptr %149, align 8
  %151 = load i32, ptr %150, align 8
  store i32 %151, ptr %9, align 4
  br label %152

152:                                              ; preds = %147, %127
  %153 = load i32, ptr %9, align 4
  %154 = icmp uge i32 %153, 3
  br i1 %154, label %155, label %158

155:                                              ; preds = %152
  %156 = load i32, ptr %9, align 4
  %157 = icmp ule i32 %156, 7
  br label %158

158:                                              ; preds = %155, %152
  %159 = phi i1 [ false, %152 ], [ %157, %155 ]
  %160 = zext i1 %159 to i32
  %161 = call ptr @LLVMConstInt(ptr noundef %140, i64 noundef %141, i32 noundef %160) #8
  %162 = call ptr @LLVMBuildExtractElement(ptr noundef %130, ptr noundef %131, ptr noundef %161, ptr noundef @.str.3) #8
  store ptr %162, ptr %21, align 8
  br label %170

163:                                              ; preds = %119
  %164 = load ptr, ptr %22, align 8
  %165 = getelementptr inbounds %struct.GenContext_, ptr %164, i32 0, i32 8
  %166 = load ptr, ptr %165, align 8
  %167 = load ptr, ptr %23, align 8
  %168 = load i32, ptr %24, align 4
  %169 = call ptr @LLVMBuildExtractValue(ptr noundef %166, ptr noundef %167, i32 noundef %168, ptr noundef @.str.3) #8
  store ptr %169, ptr %21, align 8
  br label %170

170:                                              ; preds = %163, %158
  %171 = load ptr, ptr %21, align 8
  store ptr %171, ptr %35, align 8
  %172 = load ptr, ptr %27, align 8
  %173 = load ptr, ptr %35, align 8
  %174 = getelementptr inbounds %union.SourceSpan, ptr %26, i32 0, i32 0
  %175 = load i64, ptr %174, align 8
  call void @llvm_emit_panic_on_true(ptr noundef %172, ptr noundef %173, ptr noundef @.str.161, i64 %175, ptr noundef null, ptr noundef null, ptr noundef null)
  %176 = load ptr, ptr %34, align 8
  store ptr %176, ptr %25, align 8
  br label %184

177:                                              ; preds = %5
  %178 = load ptr, ptr %27, align 8
  %179 = getelementptr inbounds %struct.GenContext_, ptr %178, i32 0, i32 8
  %180 = load ptr, ptr %179, align 8
  %181 = load ptr, ptr %29, align 8
  %182 = load ptr, ptr %30, align 8
  %183 = call ptr @LLVMBuildSub(ptr noundef %180, ptr noundef %181, ptr noundef %182, ptr noundef @.str.162)
  store ptr %183, ptr %25, align 8
  br label %184

184:                                              ; preds = %177, %170
  %185 = load ptr, ptr %25, align 8
  ret ptr %185
}