; Function Attrs: nounwind uwtable
define internal fastcc ptr @llvm_emit_sub_int(ptr noundef %0, ptr noundef %1, ptr noundef %2, ptr noundef %3, i64 %4) unnamed_addr #0 {
  %6 = alloca ptr, align 8
  %7 = alloca [2 x ptr], align 16
  %8 = load i16, ptr getelementptr inbounds (%struct.BuildTarget, ptr @active_target, i64 0, i32 67), align 8
  %9 = and i16 %8, 16384
  %.not = icmp eq i16 %9, 0
  br i1 %.not, label %73, label %10

10:                                               ; preds = %5
  %11 = tail call ptr @llvm_get_type(ptr noundef %0, ptr noundef %1) #10
  store ptr %11, ptr %6, align 8
  store ptr %2, ptr %7, align 16
  %12 = getelementptr inbounds i8, ptr %7, i64 8
  store ptr %3, ptr %12, align 8
  %13 = load i32, ptr %1, align 8
  %14 = add i32 %13, -8
  %or.cond = icmp ult i32 %14, 5
  %15 = getelementptr inbounds i8, ptr %0, i64 8
  %16 = load ptr, ptr %15, align 8
  %17 = getelementptr inbounds i8, ptr %0, i64 40
  %18 = getelementptr inbounds i8, ptr %0, i64 64
  %.val = load i32, ptr getelementptr inbounds (%struct.LLVMIntrinsics, ptr @intrinsic_id, i64 0, i32 76), align 4
  %.val69 = load i32, ptr getelementptr inbounds (%struct.LLVMIntrinsics, ptr @intrinsic_id, i64 0, i32 66), align 4
  %19 = select i1 %or.cond, i32 %.val, i32 %.val69
  %20 = call ptr @LLVMGetIntrinsicDeclaration(ptr noundef %16, i32 noundef %19, ptr noundef nonnull %6, i64 noundef 1) #10
  %21 = load ptr, ptr %17, align 8
  %22 = call ptr @LLVMIntrinsicGetType(ptr noundef %21, i32 noundef %19, ptr noundef nonnull %6, i64 noundef 1) #10
  %23 = load ptr, ptr %18, align 8
  %24 = call ptr @LLVMBuildCall2(ptr noundef %23, ptr noundef %22, ptr noundef %20, ptr noundef nonnull %7, i32 noundef 2, ptr noundef nonnull @.str.3) #10
  %25 = call ptr @LLVMTypeOf(ptr noundef %24) #10
  %26 = call i32 @LLVMGetTypeKind(ptr noundef %25) #10
  %27 = icmp eq i32 %26, 13
  %28 = getelementptr inbounds i8, ptr %0, i64 64
  %29 = load ptr, ptr %28, align 8
  br i1 %27, label %30, label %46

30:                                               ; preds = %10
  %31 = load ptr, ptr @type_usz, align 8
  %32 = call fastcc ptr @type_lowering(ptr noundef %31)
  %33 = call ptr @llvm_get_type(ptr noundef nonnull %0, ptr noundef %32) #10
  %34 = load i32, ptr %32, align 8
  %35 = icmp eq i32 %34, 31
  br i1 %35, label %36, label %40

36:                                               ; preds = %30
  %37 = getelementptr inbounds i8, ptr %32, i64 8
  %38 = load ptr, ptr %37, align 8
  %39 = load i32, ptr %38, align 8
  br label %40

40:                                               ; preds = %36, %30
  %.0 = phi i32 [ %39, %36 ], [ %34, %30 ]
  %41 = add i32 %.0, -3
  %42 = icmp ult i32 %41, 5
  %43 = zext i1 %42 to i32
  %44 = call ptr @LLVMConstInt(ptr noundef %33, i64 noundef 0, i32 noundef %43) #10
  %45 = call ptr @LLVMBuildExtractElement(ptr noundef %29, ptr noundef %24, ptr noundef %44, ptr noundef nonnull @.str.3) #10
  br label %48

46:                                               ; preds = %10
  %47 = call ptr @LLVMBuildExtractValue(ptr noundef %29, ptr noundef %24, i32 noundef 0, ptr noundef nonnull @.str.3) #10
  br label %48

48:                                               ; preds = %46, %40
  %.059 = phi ptr [ %45, %40 ], [ %47, %46 ]
  %49 = call ptr @LLVMTypeOf(ptr noundef %24) #10
  %50 = call i32 @LLVMGetTypeKind(ptr noundef %49) #10
  %51 = icmp eq i32 %50, 13
  %52 = getelementptr inbounds i8, ptr %0, i64 64
  %53 = load ptr, ptr %52, align 8
  br i1 %51, label %54, label %70

54:                                               ; preds = %48
  %55 = load ptr, ptr @type_usz, align 8
  %56 = call fastcc ptr @type_lowering(ptr noundef %55)
  %57 = call ptr @llvm_get_type(ptr noundef nonnull %0, ptr noundef %56) #10
  %58 = load i32, ptr %56, align 8
  %59 = icmp eq i32 %58, 31
  br i1 %59, label %60, label %64

60:                                               ; preds = %54
  %61 = getelementptr inbounds i8, ptr %56, i64 8
  %62 = load ptr, ptr %61, align 8
  %63 = load i32, ptr %62, align 8
  br label %64

64:                                               ; preds = %60, %54
  %.057 = phi i32 [ %63, %60 ], [ %58, %54 ]
  %65 = add i32 %.057, -3
  %66 = icmp ult i32 %65, 5
  %67 = zext i1 %66 to i32
  %68 = call ptr @LLVMConstInt(ptr noundef %57, i64 noundef 1, i32 noundef %67) #10
  %69 = call ptr @LLVMBuildExtractElement(ptr noundef %53, ptr noundef %24, ptr noundef %68, ptr noundef nonnull @.str.3) #10
  br label %72

70:                                               ; preds = %48
  %71 = call ptr @LLVMBuildExtractValue(ptr noundef %53, ptr noundef %24, i32 noundef 1, ptr noundef nonnull @.str.3) #10
  br label %72

72:                                               ; preds = %70, %64
  %.060 = phi ptr [ %69, %64 ], [ %71, %70 ]
  call void @llvm_emit_panic_on_true(ptr noundef nonnull %0, ptr noundef %.060, ptr noundef nonnull @.str.161, i64 %4, ptr noundef null, ptr noundef null, ptr noundef null) #10
  br label %77

73:                                               ; preds = %5
  %74 = getelementptr inbounds i8, ptr %0, i64 64
  %75 = load ptr, ptr %74, align 8
  %76 = tail call ptr @LLVMBuildSub(ptr noundef %75, ptr noundef %2, ptr noundef %3, ptr noundef nonnull @.str.162) #10
  br label %77

77:                                               ; preds = %73, %72
  %.061 = phi ptr [ %.059, %72 ], [ %76, %73 ]
  ret ptr %.061
}